; Function Attrs: mustprogress uwtable
define hidden void @_ZN11state_graph8add_edgeEjjb(ptr noundef nonnull align 8 dereferenceable(152) %0, i32 noundef %1, i32 noundef %2, i1 noundef zeroext %3) local_unnamed_addr #3 align 2 {
  %5 = getelementptr inbounds nuw i8, ptr %0, i64 40
  %6 = load ptr, ptr %5, align 8, !tbaa !3
  %7 = icmp eq ptr %6, null
  br i1 %7, label %_ZNK16basic_union_find4findEj.exit, label %_ZNK16basic_union_find12get_num_varsEv.exit.i

_ZNK16basic_union_find12get_num_varsEv.exit.i:    ; preds = %4
  %8 = getelementptr inbounds i8, ptr %6, i64 -4
  %9 = load i32, ptr %8, align 4, !tbaa !9
  %.not.i = icmp ult i32 %2, %9
  br i1 %.not.i, label %.preheader.i, label %_ZNK16basic_union_find4findEj.exit

.preheader.i:                                     ; preds = %_ZNK16basic_union_find12get_num_varsEv.exit.i, %.preheader.i
  %.010.i = phi i32 [ %12, %.preheader.i ], [ %2, %_ZNK16basic_union_find12get_num_varsEv.exit.i ]
  %10 = zext i32 %.010.i to i64
  %11 = getelementptr inbounds nuw i32, ptr %6, i64 %10
  %12 = load i32, ptr %11, align 4, !tbaa !9
  %.not17.i = icmp eq i32 %12, %.010.i
  br i1 %.not17.i, label %_ZNK16basic_union_find4findEj.exit, label %.preheader.i

_ZNK16basic_union_find4findEj.exit:               ; preds = %.preheader.i, %4, %_ZNK16basic_union_find12get_num_varsEv.exit.i
  %.09.i = phi i32 [ %2, %_ZNK16basic_union_find12get_num_varsEv.exit.i ], [ %2, %4 ], [ %.010.i, %.preheader.i ]
  tail call void @_ZN11state_graph13add_edge_coreEjjb(ptr noundef nonnull align 8 dereferenceable(152) %0, i32 noundef %1, i32 noundef %.09.i, i1 noundef zeroext %3)
  %13 = lshr i32 %.09.i, 5
  %14 = load ptr, ptr %0, align 8, !tbaa !3
  %15 = icmp eq ptr %14, null
  br i1 %15, label %_ZNK8uint_set8containsEj.exit.thread, label %_ZNK6vectorIjLb0EjE4sizeEv.exit.i

_ZNK6vectorIjLb0EjE4sizeEv.exit.i:                ; preds = %_ZNK16basic_union_find4findEj.exit
  %16 = getelementptr inbounds i8, ptr %14, i64 -4
  %17 = load i32, ptr %16, align 4, !tbaa !9
  %18 = icmp ult i32 %13, %17
  br i1 %18, label %_ZNK8uint_set8containsEj.exit, label %_ZNK8uint_set8containsEj.exit.thread

_ZNK8uint_set8containsEj.exit:                    ; preds = %_ZNK6vectorIjLb0EjE4sizeEv.exit.i
  %19 = zext nneg i32 %13 to i64
  %20 = getelementptr inbounds nuw i32, ptr %14, i64 %19
  %21 = load i32, ptr %20, align 4, !tbaa !9
  %22 = and i32 %.09.i, 31
  %23 = shl nuw i32 1, %22
  %24 = and i32 %21, %23
  %.not = icmp eq i32 %24, 0
  br i1 %.not, label %_ZNK8uint_set8containsEj.exit.thread, label %25

25:                                               ; preds = %_ZNK8uint_set8containsEj.exit
  %26 = getelementptr inbounds nuw i8, ptr %0, i64 24
  %27 = lshr i32 %1, 5
  %28 = load ptr, ptr %26, align 8, !tbaa !3
  %29 = icmp eq ptr %28, null
  br i1 %29, label %_ZN11state_graph9mark_liveEj.exit, label %_ZNK6vectorIjLb0EjE4sizeEv.exit.i.i

_ZNK6vectorIjLb0EjE4sizeEv.exit.i.i:              ; preds = %25
  %30 = getelementptr inbounds i8, ptr %28, i64 -4
  %31 = load i32, ptr %30, align 4, !tbaa !9
  %32 = icmp ult i32 %27, %31
  br i1 %32, label %_ZNK8uint_set8containsEj.exit.i, label %_ZN11state_graph9mark_liveEj.exit

_ZNK8uint_set8containsEj.exit.i:                  ; preds = %_ZNK6vectorIjLb0EjE4sizeEv.exit.i.i
  %33 = zext nneg i32 %27 to i64
  %34 = getelementptr inbounds nuw i32, ptr %28, i64 %33
  %35 = load i32, ptr %34, align 4, !tbaa !9
  %36 = and i32 %1, 31
  %37 = shl nuw i32 1, %36
  %38 = and i32 %35, %37
  %.not.i6 = icmp eq i32 %38, 0
  br i1 %.not.i6, label %_ZN11state_graph9mark_liveEj.exit, label %_ZN8uint_set6removeEj.exit.i.i

_ZN8uint_set6removeEj.exit.i.i:                   ; preds = %_ZNK8uint_set8containsEj.exit.i
  %39 = xor i32 %37, -1
  %40 = and i32 %35, %39
  store i32 %40, ptr %34, align 4, !tbaa !9
  %41 = getelementptr inbounds nuw i8, ptr %0, i64 16
  %42 = load ptr, ptr %41, align 8, !tbaa !3
  %43 = icmp eq ptr %42, null
  br i1 %43, label %thread-pre-split.i.i.i.i.preheader, label %_ZNK6vectorIjLb0EjE4sizeEv.exit.i2.i.i

_ZNK6vectorIjLb0EjE4sizeEv.exit.i2.i.i:           ; preds = %_ZN8uint_set6removeEj.exit.i.i
  %44 = getelementptr inbounds i8, ptr %42, i64 -4
  %45 = load i32, ptr %44, align 4, !tbaa !9
  %.not.i.i.i = icmp ult i32 %27, %45
  br i1 %.not.i.i.i, label %_ZN11state_graph17mark_unknown_coreEj.exit.i, label %thread-pre-split.i.i.i.i.preheader

thread-pre-split.i.i.i.i.preheader:               ; preds = %_ZNK6vectorIjLb0EjE4sizeEv.exit.i2.i.i, %_ZN8uint_set6removeEj.exit.i.i
  %.ph = phi ptr [ null, %_ZN8uint_set6removeEj.exit.i.i ], [ %42, %_ZNK6vectorIjLb0EjE4sizeEv.exit.i2.i.i ]
  %.0.i16.i.i.i.i.ph = phi i32 [ 0, %_ZN8uint_set6removeEj.exit.i.i ], [ %45, %_ZNK6vectorIjLb0EjE4sizeEv.exit.i2.i.i ]
  %.ph7 = add nuw nsw i32 %27, 1
  br label %thread-pre-split.i.i.i.i

thread-pre-split.i.i.i.i:                         ; preds = %thread-pre-split.i.i.i.i.preheader, %_ZNK6vectorIjLb0EjE8capacityEv.exit.thread.i.i.i.i
  %46 = phi ptr [ %.pr.pre.i.i.i.i, %_ZNK6vectorIjLb0EjE8capacityEv.exit.thread.i.i.i.i ], [ %.ph, %thread-pre-split.i.i.i.i.preheader ]
  %47 = icmp eq ptr %46, null
  br i1 %47, label %_ZNK6vectorIjLb0EjE8capacityEv.exit.thread.i.i.i.i, label %_ZNK6vectorIjLb0EjE8capacityEv.exit.i.i.i.i

_ZNK6vectorIjLb0EjE8capacityEv.exit.i.i.i.i:      ; preds = %thread-pre-split.i.i.i.i
  %48 = getelementptr inbounds i8, ptr %46, i64 -8
  %49 = load i32, ptr %48, align 4, !tbaa !9
  %.not8 = icmp ult i32 %27, %49
  br i1 %.not8, label %50, label %_ZNK6vectorIjLb0EjE8capacityEv.exit.thread.i.i.i.i

_ZNK6vectorIjLb0EjE8capacityEv.exit.thread.i.i.i.i: ; preds = %_ZNK6vectorIjLb0EjE8capacityEv.exit.i.i.i.i, %thread-pre-split.i.i.i.i
  tail call void @_ZN6vectorIjLb0EjE13expand_vectorEv(ptr noundef nonnull align 8 dereferenceable(8) %41)
  %.pr.pre.i.i.i.i = load ptr, ptr %41, align 8, !tbaa !3
  br label %thread-pre-split.i.i.i.i, !llvm.loop !13

50:                                               ; preds = %_ZNK6vectorIjLb0EjE8capacityEv.exit.i.i.i.i
  %51 = getelementptr inbounds i8, ptr %46, i64 -4
  store i32 %.ph7, ptr %51, align 4, !tbaa !9
  %.not1218.i.i.i.i = icmp eq i32 %.0.i16.i.i.i.i.ph, %.ph7
  br i1 %.not1218.i.i.i.i, label %_ZN11state_graph17mark_unknown_coreEj.exit.i, label %.lr.ph.preheader.i.i.i.i

.lr.ph.preheader.i.i.i.i:                         ; preds = %50
  %52 = zext nneg i32 %.ph7 to i64
  %53 = zext i32 %.0.i16.i.i.i.i.ph to i64
  %54 = getelementptr i32, ptr %46, i64 %53
  %55 = sub nsw i64 %52, %53
  %56 = shl nsw i64 %55, 2
  tail call void @llvm.memset.p0.i64(ptr align 4 %54, i8 0, i64 %56, i1 false), !tbaa !9
  br label %_ZN11state_graph17mark_unknown_coreEj.exit.i

_ZN11state_graph17mark_unknown_coreEj.exit.i:     ; preds = %.lr.ph.preheader.i.i.i.i, %50, %_ZNK6vectorIjLb0EjE4sizeEv.exit.i2.i.i
  %57 = phi ptr [ %46, %.lr.ph.preheader.i.i.i.i ], [ %46, %50 ], [ %42, %_ZNK6vectorIjLb0EjE4sizeEv.exit.i2.i.i ]
  %58 = getelementptr inbounds nuw i32, ptr %57, i64 %33
  %59 = load i32, ptr %58, align 4, !tbaa !9
  %60 = or i32 %59, %37
  store i32 %60, ptr %58, align 4, !tbaa !9
  br label %_ZN11state_graph9mark_liveEj.exit

_ZN11state_graph9mark_liveEj.exit:                ; preds = %25, %_ZNK6vectorIjLb0EjE4sizeEv.exit.i.i, %_ZNK8uint_set8containsEj.exit.i, %_ZN11state_graph17mark_unknown_coreEj.exit.i
  tail call void @_ZN11state_graph19mark_live_recursiveEj(ptr noundef nonnull align 8 dereferenceable(152) %0, i32 noundef %1)
  br label %_ZNK8uint_set8containsEj.exit.thread

_ZNK8uint_set8containsEj.exit.thread:             ; preds = %_ZNK16basic_union_find4findEj.exit, %_ZNK6vectorIjLb0EjE4sizeEv.exit.i, %_ZN11state_graph9mark_liveEj.exit, %_ZNK8uint_set8containsEj.exit
  ret void
}